Certificate:
    Data:
        Version: 3 (0x2)
        Serial Number: 1 (0x1)
        Signature Algorithm: sha1WithRSAEncryption
        Issuer: C=IN, ST=Karnataka, O=Sahi
        Validity
            Not Before: Jun 10 13:15:24 2015 GMT
            Not After : Jun  7 13:15:24 2025 GMT
        Subject: C=IN, ST=Karnataka, O=Sahi, OU=Sahi, CN=clients2.googleusercontent.com
        Subject Public Key Info:
            Public Key Algorithm: rsaEncryption
            RSA Public Key: (1024 bit)
                Modulus (1024 bit):
                    00:b0:28:08:e0:0a:31:ed:5c:2c:02:7d:48:12:50:
                    4b:88:b2:68:f8:ed:af:11:c8:29:fd:54:ad:30:58:
                    ee:eb:4c:93:e6:cb:32:49:58:d0:9e:f0:92:db:32:
                    71:82:74:3c:5f:ca:41:8d:af:95:59:14:1e:a5:04:
                    14:c9:09:fb:d7:03:ad:cf:3a:92:b5:7a:c1:b6:da:
                    93:76:23:3e:08:73:cb:6a:a8:bc:fd:c0:2d:66:52:
                    df:c8:bf:5d:c1:97:9d:85:79:f3:c6:5f:b6:c3:cd:
                    d1:d8:3f:e6:52:78:39:6b:47:99:85:d9:58:68:39:
                    36:73:37:46:ca:b2:a2:bb:23
                Exponent: 65537 (0x10001)
        X509v3 extensions:
            X509v3 Basic Constraints: 
                CA:FALSE
            Netscape Comment: 
                OpenSSL Generated Certificate
            X509v3 Subject Key Identifier: 
                D6:57:E2:1E:9B:A5:DA:39:B8:30:F6:5F:C3:C7:62:B5:4E:72:A2:5B
            X509v3 Authority Key Identifier: 
                keyid:09:2F:AC:7E:33:BF:4E:00:87:EB:5F:3F:01:A8:AC:81:EE:3E:19:26
                DirName:/C=IN/ST=Karnataka/O=Sahi
                serial:D6:8C:78:5C:DF:F5:9E:A3

    Signature Algorithm: sha1WithRSAEncryption
        78:ca:70:22:43:05:a3:42:51:27:27:79:95:b2:9d:0c:e8:cf:
        4a:7e:87:e6:29:ae:2f:3c:18:ff:80:ac:00:8e:0e:a0:17:3e:
        4d:8e:54:34:50:7b:36:87:b8:76:ed:ca:af:a8:46:ad:7b:8c:
        d8:c1:9f:99:63:5f:1d:2b:08:31:59:3a:81:96:39:b3:e7:cc:
        a2:56:24:9f:a5:b3:6f:1f:47:14:85:34:c9:0a:ca:3f:1b:30:
        5a:51:2f:4b:23:12:0e:67:12:a5:5b:d0:1f:60:c4:00:96:a8:
        b7:6f:2a:84:e5:2c:0a:ea:72:6b:ae:cc:4a:fd:d1:40:da:a0:
        99:74
-----BEGIN CERTIFICATE-----
MIICzDCCAjWgAwIBAgIBATANBgkqhkiG9w0BAQUFADAwMQswCQYDVQQGEwJJTjES
MBAGA1UECBMJS2FybmF0YWthMQ0wCwYDVQQKEwRTYWhpMB4XDTE1MDYxMDEzMTUy
NFoXDTI1MDYwNzEzMTUyNFowaDELMAkGA1UEBhMCSU4xEjAQBgNVBAgTCUthcm5h
dGFrYTENMAsGA1UEChMEU2FoaTENMAsGA1UECxMEU2FoaTEnMCUGA1UEAxMeY2xp
ZW50czIuZ29vZ2xldXNlcmNvbnRlbnQuY29tMIGfMA0GCSqGSIb3DQEBAQUAA4GN
ADCBiQKBgQCwKAjgCjHtXCwCfUgSUEuIsmj47a8RyCn9VK0wWO7rTJPmyzJJWNCe
8JLbMnGCdDxfykGNr5VZFB6lBBTJCfvXA63POpK1esG22pN2Iz4Ic8tqqLz9wC1m
Ut/Iv13Bl52FefPGX7bDzdHYP+ZSeDlrR5mF2VhoOTZzN0bKsqK7IwIDAQABo4G9
MIG6MAkGA1UdEwQCMAAwLAYJYIZIAYb4QgENBB8WHU9wZW5TU0wgR2VuZXJhdGVk
IENlcnRpZmljYXRlMB0GA1UdDgQWBBTWV+Iem6XaObgw9l/Dx2K1TnKiWzBgBgNV
HSMEWTBXgBQJL6x+M79OAIfrXz8BqKyB7j4ZJqE0pDIwMDELMAkGA1UEBhMCSU4x
EjAQBgNVBAgTCUthcm5hdGFrYTENMAsGA1UEChMEU2FoaYIJANaMeFzf9Z6jMA0G
CSqGSIb3DQEBBQUAA4GBAHjKcCJDBaNCUScneZWynQzoz0p+h+Ypri88GP+ArACO
DqAXPk2OVDRQezaHuHbtyq+oRq17jNjBn5ljXx0rCDFZOoGWObPnzKJWJJ+ls28f
RxSFNMkKyj8bMFpRL0sjEg5nEqVb0B9gxACWqLdvKoTlLArqcmuuzEr90UDaoJl0
-----END CERTIFICATE-----
